target datalayout = "e-m:e-p270:32:32-p271:32:32-p272:64:64-i64:64-i128:128-f80:128-n8:16:32:64-S128"
target triple = "x86_64-pc-linux-gnu"

%union.pthread_mutex_t = type { %struct.__pthread_mutex_s }
%struct.__pthread_mutex_s = type { i32, i32, i32, i32, i32, i16, i16, %struct.__pthread_internal_list }
%struct.__pthread_internal_list = type { ptr, ptr }

@cr_mutex = internal global %union.pthread_mutex_t zeroinitializer, align 8
@.str.1 = private unnamed_addr constant [29 x i8] c"%s: pthread_mutex_lock(): %m\00", align 1
@cr_ptr = internal global ptr null, align 8
@.str.2 = private unnamed_addr constant [31 x i8] c"%s: pthread_mutex_unlock(): %m\00", align 1
@__func__.select_p_job_resume = private unnamed_addr constant [20 x i8] c"select_p_job_resume\00", align 1

; Function Attrs: nounwind uwtable
define dso_local i32 @select_p_job_resume(ptr noundef %0, i1 noundef zeroext %1) #0 {
  %3 = alloca i32, align 4
  %4 = alloca ptr, align 8
  %5 = alloca i8, align 1
  %6 = alloca i32, align 4
  %7 = alloca i32, align 4
  %8 = alloca i32, align 4
  %9 = alloca i32, align 4
  store ptr %0, ptr %4, align 8
  %10 = zext i1 %1 to i8
  store i8 %10, ptr %5, align 1
  call void @llvm.lifetime.start.p0(i64 4, ptr %6) #8
  %11 = load i8, ptr %5, align 1, !range !12, !noundef !13
  %12 = trunc i8 %11 to i1
  br i1 %12, label %14, label %13

13:                                               ; preds = %2
  store i32 0, ptr %3, align 4
  store i32 1, ptr %7, align 4
  br label %43

14:                                               ; preds = %2
  br label %15

15:                                               ; preds = %14
  call void @llvm.lifetime.start.p0(i64 4, ptr %8) #8
  %16 = call i32 @pthread_mutex_lock(ptr noundef @cr_mutex) #8
  store i32 %16, ptr %8, align 4
  %17 = load i32, ptr %8, align 4
  %18 = icmp ne i32 %17, 0
  br i1 %18, label %19, label %22

19:                                               ; preds = %15
  %20 = load i32, ptr %8, align 4
  %21 = call ptr @__errno_location() #9
  store i32 %20, ptr %21, align 4
  call void (ptr, ...) @slurm_fatal_abort(ptr noundef @.str.1, ptr noundef @__func__.select_p_job_resume) #10
  unreachable

22:                                               ; preds = %15
  call void @llvm.lifetime.end.p0(i64 4, ptr %8) #8
  br label %23

23:                                               ; preds = %22
  br label %24

24:                                               ; preds = %23
  %25 = load ptr, ptr @cr_ptr, align 8
  %26 = icmp eq ptr %25, null
  br i1 %26, label %27, label %28

27:                                               ; preds = %24
  call void @_init_node_cr()
  br label %28

28:                                               ; preds = %27, %24
  %29 = load ptr, ptr @cr_ptr, align 8
  %30 = load ptr, ptr %4, align 8
  %31 = call i32 @_add_job_to_nodes(ptr noundef %29, ptr noundef %30, ptr noundef @__func__.select_p_job_resume, i32 noundef 0)
  store i32 %31, ptr %6, align 4
  br label %32

32:                                               ; preds = %28
  call void @llvm.lifetime.start.p0(i64 4, ptr %9) #8
  %33 = call i32 @pthread_mutex_unlock(ptr noundef @cr_mutex) #8
  store i32 %33, ptr %9, align 4
  %34 = load i32, ptr %9, align 4
  %35 = icmp ne i32 %34, 0
  br i1 %35, label %36, label %39

36:                                               ; preds = %32
  %37 = load i32, ptr %9, align 4
  %38 = call ptr @__errno_location() #9
  store i32 %37, ptr %38, align 4
  call void (ptr, ...) @slurm_fatal_abort(ptr noundef @.str.2, ptr noundef @__func__.select_p_job_resume) #10
  unreachable

39:                                               ; preds = %32
  call void @llvm.lifetime.end.p0(i64 4, ptr %9) #8
  br label %40

40:                                               ; preds = %39
  br label %41

41:                                               ; preds = %40
  %42 = load i32, ptr %6, align 4
  store i32 %42, ptr %3, align 4
  store i32 1, ptr %7, align 4
  br label %43

43:                                               ; preds = %41, %13
  call void @llvm.lifetime.end.p0(i64 4, ptr %6) #8
  %44 = load i32, ptr %3, align 4
  ret i32 %44
}