; Function Attrs: nounwind uwtable
define dso_local range(i32 -1, 1) i32 @select_p_job_resume(ptr noundef %0, i1 noundef zeroext %1) local_unnamed_addr #0 {
  br i1 %1, label %3, label %17

3:                                                ; preds = %2
  %4 = tail call i32 @pthread_mutex_lock(ptr noundef nonnull @cr_mutex) #11
  %.not = icmp eq i32 %4, 0
  br i1 %.not, label %7, label %5

5:                                                ; preds = %3
  %6 = tail call ptr @__errno_location() #12
  store i32 %4, ptr %6, align 4
  tail call void (ptr, ...) @slurm_fatal_abort(ptr noundef nonnull @.str.1, ptr noundef nonnull @__func__.select_p_job_resume) #13
  unreachable

7:                                                ; preds = %3
  %8 = load ptr, ptr @cr_ptr, align 8
  %9 = icmp eq ptr %8, null
  br i1 %9, label %10, label %11

10:                                               ; preds = %7
  tail call fastcc void @_init_node_cr()
  %.pre = load ptr, ptr @cr_ptr, align 8
  br label %11

11:                                               ; preds = %10, %7
  %12 = phi ptr [ %.pre, %10 ], [ %8, %7 ]
  %13 = tail call fastcc i32 @_add_job_to_nodes(ptr noundef %12, ptr noundef %0, ptr noundef nonnull @__func__.select_p_job_resume, i32 noundef 0)
  %14 = tail call i32 @pthread_mutex_unlock(ptr noundef nonnull @cr_mutex) #11
  %.not9 = icmp eq i32 %14, 0
  br i1 %.not9, label %17, label %15

15:                                               ; preds = %11
  %16 = tail call ptr @__errno_location() #12
  store i32 %14, ptr %16, align 4
  tail call void (ptr, ...) @slurm_fatal_abort(ptr noundef nonnull @.str.2, ptr noundef nonnull @__func__.select_p_job_resume) #13
  unreachable

17:                                               ; preds = %11, %2
  %.0 = phi i32 [ 0, %2 ], [ %13, %11 ]
  ret i32 %.0
}